Certificate:
    Data:
        Version: 3 (0x2)
        Serial Number: 302184 (0x49c68)
        Signature Algorithm: sha1WithRSAEncryption
        Issuer: C=IE, ST=IE, L=Dublin, O=GL, CN=GL CA
        Validity
            Not Before: Apr 14 14:07:04 2015 GMT
            Not After : Apr 11 14:07:04 2025 GMT
        Subject: C=00, ST=00, L=Any, O=Any, CN=client00000002
        Subject Public Key Info:
            Public Key Algorithm: rsaEncryption
            RSA Public Key: (1024 bit)
                Modulus (1024 bit):
                    00:e4:42:a8:f3:a4:59:91:be:9e:91:ef:b8:df:ea:
                    4b:79:a4:02:9e:8c:0c:0f:bf:3b:e6:05:ae:15:07:
                    43:28:e8:f5:79:a6:c8:d8:9d:be:a8:3e:81:e5:50:
                    f8:27:1f:65:3c:19:e9:c2:e5:66:f2:3f:b8:18:83:
                    dd:82:42:5c:5d:a8:24:28:73:7f:2f:6d:ce:39:84:
                    09:1a:0c:d1:4f:cd:5f:41:a9:27:32:82:67:a9:7b:
                    2e:85:23:49:4b:eb:84:c1:b4:21:cc:6a:44:72:a0:
                    23:99:36:85:18:f2:9d:49:2b:90:f2:5b:1f:39:ca:
                    23:c5:8f:43:2c:04:f6:7c:4b
                Exponent: 65537 (0x10001)
        X509v3 extensions:
            X509v3 Basic Constraints: 
                CA:FALSE
            Netscape Comment: 
                Easy-RSA Generated Certificate
            X509v3 Subject Key Identifier: 
                BF:25:41:8C:8D:1F:4C:74:21:97:3F:F2:B0:29:E4:E1:57:3A:1A:CF
            X509v3 Authority Key Identifier: 
                keyid:70:35:01:57:1A:5C:47:44:78:5D:CD:C1:F7:8D:BD:E5:A4:6D:08:2D
                DirName:/C=IE/ST=IE/L=Dublin/O=GL/CN=GL CA
                serial:BE:72:CB:E1:D7:AC:40:77

            X509v3 Extended Key Usage: 
                TLS Web Client Authentication
            X509v3 Key Usage: 
                Digital Signature
    Signature Algorithm: sha1WithRSAEncryption
        72:94:ec:f5:c9:b8:e7:47:7f:6a:23:9d:59:11:1c:e4:64:42:
        8e:d9:ad:89:b1:58:46:83:52:f0:6d:87:1e:5e:28:2c:04:1f:
        ec:98:e5:f9:53:57:1a:cc:2e:4f:a3:75:57:9d:a2:d6:cd:70:
        7f:cd:c4:5a:24:01:e8:36:43:44:b1:70:85:0d:83:25:c7:cb:
        7b:12:6b:ba:66:2b:1d:c6:97:0d:49:cb:95:a6:e7:8e:e2:f8:
        c4:9d:3d:db:27:91:03:cf:44:40:5a:e3:49:97:15:fb:1c:6a:
        ee:29:26:28:88:5d:91:3a:6f:43:0d:13:87:8a:95:fe:55:ec:
        d1:bb
-----BEGIN CERTIFICATE-----
MIIDCDCCAnGgAwIBAgIDBJxoMA0GCSqGSIb3DQEBBQUAMEgxCzAJBgNVBAYTAklF
MQswCQYDVQQIEwJJRTEPMA0GA1UEBxMGRHVibGluMQswCQYDVQQKEwJHTDEOMAwG
A1UEAxMFR0wgQ0EwHhcNMTUwNDE0MTQwNzA0WhcNMjUwNDExMTQwNzA0WjBPMQsw
CQYDVQQGEwIwMDELMAkGA1UECBMCMDAxDDAKBgNVBAcTA0FueTEMMAoGA1UEChMD
QW55MRcwFQYDVQQDEw5jbGllbnQwMDAwMDAwMjCBnzANBgkqhkiG9w0BAQEFAAOB
jQAwgYkCgYEA5EKo86RZkb6eke+43+pLeaQCnowMD7875gWuFQdDKOj1eabI2J2+
qD6B5VD4Jx9lPBnpwuVm8j+4GIPdgkJcXagkKHN/L23OOYQJGgzRT81fQaknMoJn
qXsuhSNJS+uEwbQhzGpEcqAjmTaFGPKdSSuQ8lsfOcojxY9DLAT2fEsCAwEAAaOB
+DCB9TAJBgNVHRMEAjAAMC0GCWCGSAGG+EIBDQQgFh5FYXN5LVJTQSBHZW5lcmF0
ZWQgQ2VydGlmaWNhdGUwHQYDVR0OBBYEFL8lQYyNH0x0IZc/8rAp5OFXOhrPMHgG
A1UdIwRxMG+AFHA1AVcaXEdEeF3NwfeNveWkbQgtoUykSjBIMQswCQYDVQQGEwJJ
RTELMAkGA1UECBMCSUUxDzANBgNVBAcTBkR1YmxpbjELMAkGA1UEChMCR0wxDjAM
BgNVBAMTBUdMIENBggkAvnLL4desQHcwEwYDVR0lBAwwCgYIKwYBBQUHAwIwCwYD
VR0PBAQDAgeAMA0GCSqGSIb3DQEBBQUAA4GBAHKU7PXJuOdHf2ojnVkRHORkQo7Z
rYmxWEaDUvBthx5eKCwEH+yY5flTVxrMLk+jdVedotbNcH/NxFokAeg2Q0SxcIUN
gyXHy3sSa7pmKx3Glw1Jy5Wm547i+MSdPdsnkQPPREBa40mXFfscau4pJiiIXZE6
b0MNE4eKlf5V7NG7
-----END CERTIFICATE-----
